target datalayout = "e-m:e-p270:32:32-p271:32:32-p272:64:64-i64:64-i128:128-f80:128-n8:16:32:64-S128"
target triple = "x86_64-pc-linux-gnu"

%struct._object = type { %union.anon, ptr }
%union.anon = type { i64 }
%struct.PyVarObject = type { %struct._object, i64 }
%struct.PyTupleObject = type { %struct.PyVarObject, [1 x ptr] }
%struct.PickleState = type { ptr, ptr, ptr, ptr, ptr, ptr, ptr, ptr, ptr, ptr, ptr, ptr, ptr, ptr, ptr, ptr, ptr, ptr, ptr }
%struct.Py_buffer = type { ptr, ptr, i64, i64, i32, i32, ptr, ptr, ptr, ptr, ptr }
%struct.UnpicklerObject = type { %struct._object, ptr, ptr, i64, i64, ptr, ptr, %struct.Py_buffer, ptr, ptr, i64, i64, i64, ptr, ptr, ptr, ptr, ptr, ptr, ptr, ptr, i64, i64, i32, i32 }
%struct.Pdata = type { %struct.PyVarObject, ptr, i32, i64, i64 }

@.str.103 = private unnamed_addr constant [22 x i8] c"unexpected MARK found\00", align 1
@.str.104 = private unnamed_addr constant [27 x i8] c"unpickling stack underflow\00", align 1

; Function Attrs: nounwind uwtable
define internal i32 @Pdata_grow(ptr noundef %0) #0 {
  %2 = alloca i32, align 4
  %3 = alloca ptr, align 8
  %4 = alloca ptr, align 8
  %5 = alloca i64, align 8
  %6 = alloca i64, align 8
  %7 = alloca i32, align 4
  store ptr %0, ptr %3, align 8, !tbaa !8
  call void @llvm.lifetime.start.p0(i64 8, ptr %4) #10
  %8 = load ptr, ptr %3, align 8, !tbaa !8
  %9 = getelementptr inbounds nuw %struct.Pdata, ptr %8, i32 0, i32 1
  %10 = load ptr, ptr %9, align 8, !tbaa !186
  store ptr %10, ptr %4, align 8, !tbaa !32
  call void @llvm.lifetime.start.p0(i64 8, ptr %5) #10
  %11 = load ptr, ptr %3, align 8, !tbaa !8
  %12 = getelementptr inbounds nuw %struct.Pdata, ptr %11, i32 0, i32 4
  %13 = load i64, ptr %12, align 8, !tbaa !185
  store i64 %13, ptr %5, align 8, !tbaa !34
  call void @llvm.lifetime.start.p0(i64 8, ptr %6) #10
  %14 = load i64, ptr %5, align 8, !tbaa !34
  %15 = lshr i64 %14, 3
  %16 = add i64 %15, 6
  store i64 %16, ptr %6, align 8, !tbaa !34
  %17 = load i64, ptr %6, align 8, !tbaa !34
  %18 = load i64, ptr %5, align 8, !tbaa !34
  %19 = sub i64 9223372036854775807, %18
  %20 = icmp ugt i64 %17, %19
  br i1 %20, label %21, label %22

21:                                               ; preds = %1
  br label %46

22:                                               ; preds = %1
  %23 = load i64, ptr %5, align 8, !tbaa !34
  %24 = load i64, ptr %6, align 8, !tbaa !34
  %25 = add i64 %24, %23
  store i64 %25, ptr %6, align 8, !tbaa !34
  %26 = load i64, ptr %6, align 8, !tbaa !34
  %27 = icmp ugt i64 %26, 1152921504606846975
  br i1 %27, label %28, label %29

28:                                               ; preds = %22
  br label %34

29:                                               ; preds = %22
  %30 = load ptr, ptr %4, align 8, !tbaa !32
  %31 = load i64, ptr %6, align 8, !tbaa !34
  %32 = mul i64 %31, 8
  %33 = call ptr @PyMem_Realloc(ptr noundef %30, i64 noundef %32)
  br label %34

34:                                               ; preds = %29, %28
  %35 = phi ptr [ null, %28 ], [ %33, %29 ]
  store ptr %35, ptr %4, align 8, !tbaa !32
  %36 = load ptr, ptr %4, align 8, !tbaa !32
  %37 = icmp eq ptr %36, null
  br i1 %37, label %38, label %39

38:                                               ; preds = %34
  br label %46

39:                                               ; preds = %34
  %40 = load ptr, ptr %4, align 8, !tbaa !32
  %41 = load ptr, ptr %3, align 8, !tbaa !8
  %42 = getelementptr inbounds nuw %struct.Pdata, ptr %41, i32 0, i32 1
  store ptr %40, ptr %42, align 8, !tbaa !186
  %43 = load i64, ptr %6, align 8, !tbaa !34
  %44 = load ptr, ptr %3, align 8, !tbaa !8
  %45 = getelementptr inbounds nuw %struct.Pdata, ptr %44, i32 0, i32 4
  store i64 %43, ptr %45, align 8, !tbaa !185
  store i32 0, ptr %2, align 4
  store i32 1, ptr %7, align 4
  br label %48

46:                                               ; preds = %38, %21
  %47 = call ptr @PyErr_NoMemory()
  store i32 -1, ptr %2, align 4
  store i32 1, ptr %7, align 4
  br label %48

48:                                               ; preds = %46, %39
  call void @llvm.lifetime.end.p0(i64 8, ptr %6) #10
  call void @llvm.lifetime.end.p0(i64 8, ptr %5) #10
  call void @llvm.lifetime.end.p0(i64 8, ptr %4) #10
  %49 = load i32, ptr %2, align 4
  ret i32 %49
}

; Function Attrs: inlinehint nounwind uwtable
define internal void @Py_SET_SIZE(ptr noundef %0, i64 noundef %1) #3 {
  %3 = alloca ptr, align 8
  %4 = alloca i64, align 8
  store ptr %0, ptr %3, align 8, !tbaa !8
  store i64 %1, ptr %4, align 8, !tbaa !34
  %5 = load i64, ptr %4, align 8, !tbaa !34
  %6 = load ptr, ptr %3, align 8, !tbaa !8
  %7 = getelementptr inbounds nuw %struct.PyVarObject, ptr %6, i32 0, i32 1
  store i64 %5, ptr %7, align 8, !tbaa !40
  ret void
}

; Function Attrs: inlinehint nounwind uwtable
define internal void @PyTuple_SET_ITEM(ptr noundef %0, i64 noundef %1, ptr noundef %2) #3 {
  %4 = alloca ptr, align 8
  %5 = alloca i64, align 8
  %6 = alloca ptr, align 8
  %7 = alloca ptr, align 8
  store ptr %0, ptr %4, align 8, !tbaa !3
  store i64 %1, ptr %5, align 8, !tbaa !34
  store ptr %2, ptr %6, align 8, !tbaa !3
  call void @llvm.lifetime.start.p0(i64 8, ptr %7) #10
  %8 = load ptr, ptr %4, align 8, !tbaa !3
  store ptr %8, ptr %7, align 8, !tbaa !8
  %9 = load ptr, ptr %6, align 8, !tbaa !3
  %10 = load ptr, ptr %7, align 8, !tbaa !8
  %11 = getelementptr inbounds nuw %struct.PyTupleObject, ptr %10, i32 0, i32 1
  %12 = load i64, ptr %5, align 8, !tbaa !34
  %13 = getelementptr [1 x ptr], ptr %11, i64 0, i64 %12
  store ptr %9, ptr %13, align 8, !tbaa !3
  call void @llvm.lifetime.end.p0(i64 8, ptr %7) #10
  ret void
}

; Function Attrs: nounwind uwtable
define internal i32 @Pdata_push(ptr noundef %0, ptr noundef %1) #0 {
  %3 = alloca i32, align 4
  %4 = alloca ptr, align 8
  %5 = alloca ptr, align 8
  store ptr %0, ptr %4, align 8, !tbaa !8
  store ptr %1, ptr %5, align 8, !tbaa !3
  %6 = load ptr, ptr %4, align 8, !tbaa !8
  %7 = call i64 @Py_SIZE(ptr noundef %6)
  %8 = load ptr, ptr %4, align 8, !tbaa !8
  %9 = getelementptr inbounds nuw %struct.Pdata, ptr %8, i32 0, i32 4
  %10 = load i64, ptr %9, align 8, !tbaa !185
  %11 = icmp eq i64 %7, %10
  br i1 %11, label %12, label %17

12:                                               ; preds = %2
  %13 = load ptr, ptr %4, align 8, !tbaa !8
  %14 = call i32 @Pdata_grow(ptr noundef %13)
  %15 = icmp slt i32 %14, 0
  br i1 %15, label %16, label %17

16:                                               ; preds = %12
  store i32 -1, ptr %3, align 4
  br label %29

17:                                               ; preds = %12, %2
  %18 = load ptr, ptr %5, align 8, !tbaa !3
  %19 = load ptr, ptr %4, align 8, !tbaa !8
  %20 = getelementptr inbounds nuw %struct.Pdata, ptr %19, i32 0, i32 1
  %21 = load ptr, ptr %20, align 8, !tbaa !186
  %22 = load ptr, ptr %4, align 8, !tbaa !8
  %23 = call i64 @Py_SIZE(ptr noundef %22)
  %24 = getelementptr ptr, ptr %21, i64 %23
  store ptr %18, ptr %24, align 8, !tbaa !3
  %25 = load ptr, ptr %4, align 8, !tbaa !8
  %26 = load ptr, ptr %4, align 8, !tbaa !8
  %27 = call i64 @Py_SIZE(ptr noundef %26)
  %28 = add i64 %27, 1
  call void @Py_SET_SIZE(ptr noundef %25, i64 noundef %28)
  store i32 0, ptr %3, align 4
  br label %29

29:                                               ; preds = %17, %16
  %30 = load i32, ptr %3, align 4
  ret i32 %30
}

; Function Attrs: nounwind uwtable
define internal ptr @Pdata_poptuple(ptr noundef %0, ptr noundef %1, i64 noundef %2) #0 {
  %4 = alloca ptr, align 8
  %5 = alloca ptr, align 8
  %6 = alloca ptr, align 8
  %7 = alloca i64, align 8
  %8 = alloca ptr, align 8
  %9 = alloca i64, align 8
  %10 = alloca i64, align 8
  %11 = alloca i64, align 8
  %12 = alloca i32, align 4
  store ptr %0, ptr %5, align 8, !tbaa !8
  store ptr %1, ptr %6, align 8, !tbaa !8
  store i64 %2, ptr %7, align 8, !tbaa !34
  call void @llvm.lifetime.start.p0(i64 8, ptr %8) #10
  call void @llvm.lifetime.start.p0(i64 8, ptr %9) #10
  call void @llvm.lifetime.start.p0(i64 8, ptr %10) #10
  call void @llvm.lifetime.start.p0(i64 8, ptr %11) #10
  %13 = load i64, ptr %7, align 8, !tbaa !34
  %14 = load ptr, ptr %6, align 8, !tbaa !8
  %15 = getelementptr inbounds nuw %struct.Pdata, ptr %14, i32 0, i32 3
  %16 = load i64, ptr %15, align 8, !tbaa !184
  %17 = icmp slt i64 %13, %16
  br i1 %17, label %18, label %22

18:                                               ; preds = %3
  %19 = load ptr, ptr %5, align 8, !tbaa !8
  %20 = load ptr, ptr %6, align 8, !tbaa !8
  %21 = call i32 @Pdata_stack_underflow(ptr noundef %19, ptr noundef %20)
  store ptr null, ptr %4, align 8
  store i32 1, ptr %12, align 4
  br label %56

22:                                               ; preds = %3
  %23 = load ptr, ptr %6, align 8, !tbaa !8
  %24 = call i64 @Py_SIZE(ptr noundef %23)
  %25 = load i64, ptr %7, align 8, !tbaa !34
  %26 = sub i64 %24, %25
  store i64 %26, ptr %9, align 8, !tbaa !34
  %27 = load i64, ptr %9, align 8, !tbaa !34
  %28 = call ptr @PyTuple_New(i64 noundef %27)
  store ptr %28, ptr %8, align 8, !tbaa !3
  %29 = load ptr, ptr %8, align 8, !tbaa !3
  %30 = icmp eq ptr %29, null
  br i1 %30, label %31, label %32

31:                                               ; preds = %22
  store ptr null, ptr %4, align 8
  store i32 1, ptr %12, align 4
  br label %56

32:                                               ; preds = %22
  %33 = load i64, ptr %7, align 8, !tbaa !34
  store i64 %33, ptr %10, align 8, !tbaa !34
  store i64 0, ptr %11, align 8, !tbaa !34
  br label %34

34:                                               ; preds = %47, %32
  %35 = load i64, ptr %11, align 8, !tbaa !34
  %36 = load i64, ptr %9, align 8, !tbaa !34
  %37 = icmp slt i64 %35, %36
  br i1 %37, label %38, label %52

38:                                               ; preds = %34
  %39 = load ptr, ptr %8, align 8, !tbaa !3
  %40 = load i64, ptr %11, align 8, !tbaa !34
  %41 = load ptr, ptr %6, align 8, !tbaa !8
  %42 = getelementptr inbounds nuw %struct.Pdata, ptr %41, i32 0, i32 1
  %43 = load ptr, ptr %42, align 8, !tbaa !186
  %44 = load i64, ptr %10, align 8, !tbaa !34
  %45 = getelementptr ptr, ptr %43, i64 %44
  %46 = load ptr, ptr %45, align 8, !tbaa !3
  call void @PyTuple_SET_ITEM(ptr noundef %39, i64 noundef %40, ptr noundef %46)
  br label %47

47:                                               ; preds = %38
  %48 = load i64, ptr %10, align 8, !tbaa !34
  %49 = add i64 %48, 1
  store i64 %49, ptr %10, align 8, !tbaa !34
  %50 = load i64, ptr %11, align 8, !tbaa !34
  %51 = add i64 %50, 1
  store i64 %51, ptr %11, align 8, !tbaa !34
  br label %34, !llvm.loop !202

52:                                               ; preds = %34
  %53 = load ptr, ptr %6, align 8, !tbaa !8
  %54 = load i64, ptr %7, align 8, !tbaa !34
  call void @Py_SET_SIZE(ptr noundef %53, i64 noundef %54)
  %55 = load ptr, ptr %8, align 8, !tbaa !3
  store ptr %55, ptr %4, align 8
  store i32 1, ptr %12, align 4
  br label %56

56:                                               ; preds = %52, %31, %18
  call void @llvm.lifetime.end.p0(i64 8, ptr %11) #10
  call void @llvm.lifetime.end.p0(i64 8, ptr %10) #10
  call void @llvm.lifetime.end.p0(i64 8, ptr %9) #10
  call void @llvm.lifetime.end.p0(i64 8, ptr %8) #10
  %57 = load ptr, ptr %4, align 8
  ret ptr %57
}

; Function Attrs: nounwind uwtable
define internal i32 @Pdata_stack_underflow(ptr noundef %0, ptr noundef %1) #0 {
  %3 = alloca ptr, align 8
  %4 = alloca ptr, align 8
  store ptr %0, ptr %3, align 8, !tbaa !8
  store ptr %1, ptr %4, align 8, !tbaa !8
  %5 = load ptr, ptr %3, align 8, !tbaa !8
  %6 = getelementptr inbounds nuw %struct.PickleState, ptr %5, i32 0, i32 2
  %7 = load ptr, ptr %6, align 8, !tbaa !15
  %8 = load ptr, ptr %4, align 8, !tbaa !8
  %9 = getelementptr inbounds nuw %struct.Pdata, ptr %8, i32 0, i32 2
  %10 = load i32, ptr %9, align 8, !tbaa !182
  %11 = icmp ne i32 %10, 0
  %12 = select i1 %11, ptr @.str.103, ptr @.str.104
  call void @PyErr_SetString(ptr noundef %7, ptr noundef %12)
  ret i32 -1
}

; Function Attrs: inlinehint nounwind uwtable
define internal i64 @Py_SIZE(ptr noundef %0) #3 {
  %2 = alloca ptr, align 8
  store ptr %0, ptr %2, align 8, !tbaa !3
  %3 = load ptr, ptr %2, align 8, !tbaa !3
  %4 = getelementptr inbounds nuw %struct.PyVarObject, ptr %3, i32 0, i32 1
  %5 = load i64, ptr %4, align 8, !tbaa !40
  ret i64 %5
}

; Function Attrs: nounwind uwtable
define internal i32 @load_counted_tuple(ptr noundef %0, ptr noundef %1, i64 noundef %2) #0 {
  %4 = alloca i32, align 4
  %5 = alloca ptr, align 8
  %6 = alloca ptr, align 8
  %7 = alloca i64, align 8
  %8 = alloca ptr, align 8
  %9 = alloca i32, align 4
  store ptr %0, ptr %5, align 8, !tbaa !8
  store ptr %1, ptr %6, align 8, !tbaa !156
  store i64 %2, ptr %7, align 8, !tbaa !34
  call void @llvm.lifetime.start.p0(i64 8, ptr %8) #10
  %10 = load ptr, ptr %6, align 8, !tbaa !156
  %11 = getelementptr inbounds nuw %struct.UnpicklerObject, ptr %10, i32 0, i32 1
  %12 = load ptr, ptr %11, align 8, !tbaa !160
  %13 = call i64 @Py_SIZE(ptr noundef %12)
  %14 = load i64, ptr %7, align 8, !tbaa !34
  %15 = icmp slt i64 %13, %14
  br i1 %15, label %16, label %22

16:                                               ; preds = %3
  %17 = load ptr, ptr %5, align 8, !tbaa !8
  %18 = load ptr, ptr %6, align 8, !tbaa !156
  %19 = getelementptr inbounds nuw %struct.UnpicklerObject, ptr %18, i32 0, i32 1
  %20 = load ptr, ptr %19, align 8, !tbaa !160
  %21 = call i32 @Pdata_stack_underflow(ptr noundef %17, ptr noundef %20)
  store i32 %21, ptr %4, align 4
  store i32 1, ptr %9, align 4
  br label %49

22:                                               ; preds = %3
  %23 = load ptr, ptr %5, align 8, !tbaa !8
  %24 = load ptr, ptr %6, align 8, !tbaa !156
  %25 = getelementptr inbounds nuw %struct.UnpicklerObject, ptr %24, i32 0, i32 1
  %26 = load ptr, ptr %25, align 8, !tbaa !160
  %27 = load ptr, ptr %6, align 8, !tbaa !156
  %28 = getelementptr inbounds nuw %struct.UnpicklerObject, ptr %27, i32 0, i32 1
  %29 = load ptr, ptr %28, align 8, !tbaa !160
  %30 = call i64 @Py_SIZE(ptr noundef %29)
  %31 = load i64, ptr %7, align 8, !tbaa !34
  %32 = sub i64 %30, %31
  %33 = call ptr @Pdata_poptuple(ptr noundef %23, ptr noundef %26, i64 noundef %32)
  store ptr %33, ptr %8, align 8, !tbaa !3
  %34 = load ptr, ptr %8, align 8, !tbaa !3
  %35 = icmp eq ptr %34, null
  br i1 %35, label %36, label %37

36:                                               ; preds = %22
  store i32 -1, ptr %4, align 4
  store i32 1, ptr %9, align 4
  br label %49

37:                                               ; preds = %22
  br label %38

38:                                               ; preds = %37
  %39 = load ptr, ptr %6, align 8, !tbaa !156
  %40 = getelementptr inbounds nuw %struct.UnpicklerObject, ptr %39, i32 0, i32 1
  %41 = load ptr, ptr %40, align 8, !tbaa !160
  %42 = load ptr, ptr %8, align 8, !tbaa !3
  %43 = call i32 @Pdata_push(ptr noundef %41, ptr noundef %42)
  %44 = icmp slt i32 %43, 0
  br i1 %44, label %45, label %46

45:                                               ; preds = %38
  store i32 -1, ptr %4, align 4
  store i32 1, ptr %9, align 4
  br label %49

46:                                               ; preds = %38
  br label %47

47:                                               ; preds = %46
  br label %48

48:                                               ; preds = %47
  store i32 0, ptr %4, align 4
  store i32 1, ptr %9, align 4
  br label %49

49:                                               ; preds = %48, %45, %36, %16
  call void @llvm.lifetime.end.p0(i64 8, ptr %8) #10
  %50 = load i32, ptr %4, align 4
  ret i32 %50
}