; Function Attrs: nounwind uwtable
define internal fastcc range(i32 -1, 1) i32 @load_counted_tuple(ptr noundef readonly captures(none) %0, ptr noundef readonly captures(none) %1, i64 noundef %2) unnamed_addr #0 {
  %4 = getelementptr inbounds nuw i8, ptr %1, i64 16
  %5 = load ptr, ptr %4, align 8, !tbaa !160
  %6 = getelementptr i8, ptr %5, i64 16
  %.val13 = load i64, ptr %6, align 8, !tbaa !32
  %7 = icmp slt i64 %.val13, %2
  br i1 %7, label %8, label %12

8:                                                ; preds = %3
  %9 = getelementptr i8, ptr %0, i64 16
  %.val14 = load ptr, ptr %9, align 8, !tbaa !15
  %10 = getelementptr i8, ptr %5, i64 32
  %.val15 = load i32, ptr %10, align 8, !tbaa !155
  %.not.i = icmp eq i32 %.val15, 0
  %11 = select i1 %.not.i, ptr @.str.104, ptr @.str.103
  tail call void @PyErr_SetString(ptr noundef %.val14, ptr noundef nonnull %11) #13
  br label %Pdata_poptuple.exit.thread

12:                                               ; preds = %3
  %13 = sub i64 %.val13, %2
  %14 = getelementptr inbounds nuw i8, ptr %5, i64 40
  %15 = load i64, ptr %14, align 8, !tbaa !157
  %16 = icmp slt i64 %13, %15
  br i1 %16, label %17, label %21

17:                                               ; preds = %12
  %18 = getelementptr i8, ptr %0, i64 16
  %.val24.i = load ptr, ptr %18, align 8, !tbaa !15
  %19 = getelementptr i8, ptr %5, i64 32
  %.val25.i = load i32, ptr %19, align 8, !tbaa !155
  %.not.i.i = icmp eq i32 %.val25.i, 0
  %20 = select i1 %.not.i.i, ptr @.str.104, ptr @.str.103
  tail call void @PyErr_SetString(ptr noundef %.val24.i, ptr noundef nonnull %20) #13
  br label %Pdata_poptuple.exit.thread

21:                                               ; preds = %12
  %22 = tail call ptr @PyTuple_New(i64 noundef %2) #13
  %23 = icmp eq ptr %22, null
  br i1 %23, label %Pdata_poptuple.exit.thread, label %.preheader.i

.preheader.i:                                     ; preds = %21
  %24 = icmp sgt i64 %2, 0
  br i1 %24, label %.lr.ph.i, label %.loopexit

.lr.ph.i:                                         ; preds = %.preheader.i
  %25 = getelementptr inbounds nuw i8, ptr %5, i64 24
  %26 = load ptr, ptr %25, align 8, !tbaa !159
  %27 = getelementptr inbounds nuw i8, ptr %22, i64 24
  br label %28

28:                                               ; preds = %28, %.lr.ph.i
  %.027.i = phi i64 [ 0, %.lr.ph.i ], [ %33, %28 ]
  %.02026.i = phi i64 [ %13, %.lr.ph.i ], [ %32, %28 ]
  %29 = getelementptr ptr, ptr %26, i64 %.02026.i
  %30 = load ptr, ptr %29, align 8, !tbaa !35
  %31 = getelementptr [1 x ptr], ptr %27, i64 0, i64 %.027.i
  store ptr %30, ptr %31, align 8, !tbaa !35
  %32 = add i64 %.02026.i, 1
  %33 = add nuw nsw i64 %.027.i, 1
  %exitcond.not.i = icmp eq i64 %33, %2
  br i1 %exitcond.not.i, label %.loopexit, label %28, !llvm.loop !173

.loopexit:                                        ; preds = %28, %.preheader.i
  store i64 %13, ptr %6, align 8, !tbaa !32
  %34 = load ptr, ptr %4, align 8, !tbaa !160
  %35 = getelementptr i8, ptr %34, i64 16
  %.val9.i = load i64, ptr %35, align 8, !tbaa !32
  %36 = getelementptr inbounds nuw i8, ptr %34, i64 48
  %37 = load i64, ptr %36, align 8, !tbaa !158
  %38 = icmp eq i64 %.val9.i, %37
  %39 = getelementptr inbounds nuw i8, ptr %34, i64 24
  %40 = load ptr, ptr %39, align 8, !tbaa !159
  br i1 %38, label %41, label %Pdata_push.exit

41:                                               ; preds = %.loopexit
  %42 = lshr i64 %.val9.i, 3
  %43 = add nuw nsw i64 %42, 6
  %44 = sub i64 9223372036854775807, %.val9.i
  %45 = icmp ugt i64 %43, %44
  br i1 %45, label %56, label %46

46:                                               ; preds = %41
  %47 = add i64 %43, %.val9.i
  %48 = icmp ugt i64 %47, 1152921504606846975
  br i1 %48, label %56, label %49

49:                                               ; preds = %46
  %50 = shl nuw nsw i64 %47, 3
  %51 = tail call ptr @PyMem_Realloc(ptr noundef %40, i64 noundef %50) #13
  %52 = icmp eq ptr %51, null
  br i1 %52, label %56, label %Pdata_grow.exit.i

Pdata_grow.exit.i:                                ; preds = %49
  store ptr %51, ptr %39, align 8, !tbaa !159
  store i64 %47, ptr %36, align 8, !tbaa !158
  %.val8.pre.i = load i64, ptr %35, align 8, !tbaa !32
  br label %Pdata_push.exit

Pdata_push.exit:                                  ; preds = %.loopexit, %Pdata_grow.exit.i
  %.val8.i = phi i64 [ %.val8.pre.i, %Pdata_grow.exit.i ], [ %.val9.i, %.loopexit ]
  %53 = phi ptr [ %51, %Pdata_grow.exit.i ], [ %40, %.loopexit ]
  %54 = getelementptr ptr, ptr %53, i64 %.val8.i
  store ptr %22, ptr %54, align 8, !tbaa !35
  %55 = add i64 %.val8.i, 1
  store i64 %55, ptr %35, align 8, !tbaa !32
  br label %Pdata_poptuple.exit.thread

56:                                               ; preds = %41, %46, %49
  %57 = tail call ptr @PyErr_NoMemory() #13
  br label %Pdata_poptuple.exit.thread

Pdata_poptuple.exit.thread:                       ; preds = %21, %17, %56, %Pdata_push.exit, %8
  %.0 = phi i32 [ -1, %8 ], [ -1, %56 ], [ 0, %Pdata_push.exit ], [ -1, %17 ], [ -1, %21 ]
  ret i32 %.0
}